; ModuleID = '29/598.c'
source_filename = "29/598.c"
target datalayout = "e-m:e-p270:32:32-p271:32:32-p272:64:64-i64:64-f80:128-n8:16:32:64-S128"
target triple = "x86_64-pc-linux-gnu"

@.str = private unnamed_addr constant [3 x i8] c"%d\00", align 1
@.str.1 = private unnamed_addr constant [7 x i8] c"%.3lf\0A\00", align 1

; Function Attrs: noinline nounwind uwtable
define dso_local i32 @main() #0 {
  %1 = alloca i32, align 4
  %2 = alloca i32, align 4
  %3 = alloca i32, align 4
  %4 = alloca i32, align 4
  %5 = alloca i32, align 4
  %6 = alloca i32, align 4
  %7 = alloca [300 x double], align 16
  %8 = alloca [300 x double], align 16
  %9 = alloca [300 x double], align 16
  %10 = alloca [300 x i32], align 16
  store i32 0, i32* %1, align 4
  store i32 0, i32* %5, align 4
  %11 = call i32 (i8*, ...) @__isoc99_scanf(i8* getelementptr inbounds ([3 x i8], [3 x i8]* @.str, i64 0, i64 0), i32* %2)
  store i32 0, i32* %4, align 4
  br label %12

12:                                               ; preds = %21, %0
  %13 = load i32, i32* %4, align 4
  %14 = load i32, i32* %2, align 4
  %15 = icmp slt i32 %13, %14
  br i1 %15, label %16, label %24

16:                                               ; preds = %12
  %17 = load i32, i32* %4, align 4
  %18 = sext i32 %17 to i64
  %19 = getelementptr inbounds [300 x i32], [300 x i32]* %10, i64 0, i64 %18
  %20 = call i32 (i8*, ...) @__isoc99_scanf(i8* getelementptr inbounds ([3 x i8], [3 x i8]* @.str, i64 0, i64 0), i32* %19)
  br label %21

21:                                               ; preds = %16
  %22 = load i32, i32* %4, align 4
  %23 = add nsw i32 %22, 1
  store i32 %23, i32* %4, align 4
  br label %12

24:                                               ; preds = %12
  %25 = getelementptr inbounds [300 x double], [300 x double]* %7, i64 0, i64 0
  store double 2.000000e+00, double* %25, align 16
  %26 = getelementptr inbounds [300 x double], [300 x double]* %7, i64 0, i64 1
  store double 3.000000e+00, double* %26, align 8
  %27 = getelementptr inbounds [300 x double], [300 x double]* %8, i64 0, i64 0
  store double 1.000000e+00, double* %27, align 16
  %28 = getelementptr inbounds [300 x double], [300 x double]* %8, i64 0, i64 1
  store double 2.000000e+00, double* %28, align 8
  store i32 0, i32* %4, align 4
  br label %29

29:                                               ; preds = %61, %24
  %30 = load i32, i32* %4, align 4
  %31 = icmp slt i32 %30, 100
  br i1 %31, label %32, label %64

32:                                               ; preds = %29
  %33 = load i32, i32* %4, align 4
  %34 = sext i32 %33 to i64
  %35 = getelementptr inbounds [300 x double], [300 x double]* %7, i64 0, i64 %34
  %36 = load double, double* %35, align 8
  %37 = load i32, i32* %4, align 4
  %38 = add nsw i32 %37, 1
  %39 = sext i32 %38 to i64
  %40 = getelementptr inbounds [300 x double], [300 x double]* %7, i64 0, i64 %39
  %41 = load double, double* %40, align 8
  %42 = fadd double %36, %41
  %43 = load i32, i32* %4, align 4
  %44 = add nsw i32 %43, 2
  %45 = sext i32 %44 to i64
  %46 = getelementptr inbounds [300 x double], [300 x double]* %7, i64 0, i64 %45
  store double %42, double* %46, align 8
  %47 = load i32, i32* %4, align 4
  %48 = sext i32 %47 to i64
  %49 = getelementptr inbounds [300 x double], [300 x double]* %8, i64 0, i64 %48
  %50 = load double, double* %49, align 8
  %51 = load i32, i32* %4, align 4
  %52 = add nsw i32 %51, 1
  %53 = sext i32 %52 to i64
  %54 = getelementptr inbounds [300 x double], [300 x double]* %8, i64 0, i64 %53
  %55 = load double, double* %54, align 8
  %56 = fadd double %50, %55
  %57 = load i32, i32* %4, align 4
  %58 = add nsw i32 %57, 2
  %59 = sext i32 %58 to i64
  %60 = getelementptr inbounds [300 x double], [300 x double]* %8, i64 0, i64 %59
  store double %56, double* %60, align 8
  br label %61

61:                                               ; preds = %32
  %62 = load i32, i32* %4, align 4
  %63 = add nsw i32 %62, 1
  store i32 %63, i32* %4, align 4
  br label %29

64:                                               ; preds = %29
  store i32 0, i32* %4, align 4
  br label %65

65:                                               ; preds = %73, %64
  %66 = load i32, i32* %4, align 4
  %67 = load i32, i32* %2, align 4
  %68 = icmp slt i32 %66, %67
  br i1 %68, label %69, label %76

69:                                               ; preds = %65
  %70 = load i32, i32* %4, align 4
  %71 = sext i32 %70 to i64
  %72 = getelementptr inbounds [300 x double], [300 x double]* %9, i64 0, i64 %71
  store double 0.000000e+00, double* %72, align 8
  br label %73

73:                                               ; preds = %69
  %74 = load i32, i32* %4, align 4
  %75 = add nsw i32 %74, 1
  store i32 %75, i32* %4, align 4
  br label %65

76:                                               ; preds = %65
  store i32 0, i32* %4, align 4
  br label %77

77:                                               ; preds = %108, %76
  %78 = load i32, i32* %4, align 4
  %79 = load i32, i32* %2, align 4
  %80 = icmp slt i32 %78, %79
  br i1 %80, label %81, label %111

81:                                               ; preds = %77
  store i32 0, i32* %6, align 4
  br label %82

82:                                               ; preds = %104, %81
  %83 = load i32, i32* %6, align 4
  %84 = load i32, i32* %4, align 4
  %85 = sext i32 %84 to i64
  %86 = getelementptr inbounds [300 x i32], [300 x i32]* %10, i64 0, i64 %85
  %87 = load i32, i32* %86, align 4
  %88 = icmp slt i32 %83, %87
  br i1 %88, label %89, label %107

89:                                               ; preds = %82
  %90 = load i32, i32* %6, align 4
  %91 = sext i32 %90 to i64
  %92 = getelementptr inbounds [300 x double], [300 x double]* %7, i64 0, i64 %91
  %93 = load double, double* %92, align 8
  %94 = load i32, i32* %6, align 4
  %95 = sext i32 %94 to i64
  %96 = getelementptr inbounds [300 x double], [300 x double]* %8, i64 0, i64 %95
  %97 = load double, double* %96, align 8
  %98 = fdiv double %93, %97
  %99 = load i32, i32* %4, align 4
  %100 = sext i32 %99 to i64
  %101 = getelementptr inbounds [300 x double], [300 x double]* %9, i64 0, i64 %100
  %102 = load double, double* %101, align 8
  %103 = fadd double %102, %98
  store double %103, double* %101, align 8
  br label %104

104:                                              ; preds = %89
  %105 = load i32, i32* %6, align 4
  %106 = add nsw i32 %105, 1
  store i32 %106, i32* %6, align 4
  br label %82

107:                                              ; preds = %82
  br label %108

108:                                              ; preds = %107
  %109 = load i32, i32* %4, align 4
  %110 = add nsw i32 %109, 1
  store i32 %110, i32* %4, align 4
  br label %77

111:                                              ; preds = %77
  store i32 0, i32* %4, align 4
  br label %112

112:                                              ; preds = %122, %111
  %113 = load i32, i32* %4, align 4
  %114 = load i32, i32* %2, align 4
  %115 = icmp slt i32 %113, %114
  br i1 %115, label %116, label %125

116:                                              ; preds = %112
  %117 = load i32, i32* %4, align 4
  %118 = sext i32 %117 to i64
  %119 = getelementptr inbounds [300 x double], [300 x double]* %9, i64 0, i64 %118
  %120 = load double, double* %119, align 8
  %121 = call i32 (i8*, ...) @printf(i8* getelementptr inbounds ([7 x i8], [7 x i8]* @.str.1, i64 0, i64 0), double %120)
  br label %122

122:                                              ; preds = %116
  %123 = load i32, i32* %4, align 4
  %124 = add nsw i32 %123, 1
  store i32 %124, i32* %4, align 4
  br label %112

125:                                              ; preds = %112
  ret i32 0
}

declare dso_local i32 @__isoc99_scanf(i8*, ...) #1

declare dso_local i32 @printf(i8*, ...) #1


!llvm.module.flags = !{!0}
!llvm.ident = !{!1}

!0 = !{i32 1, !"wchar_size", i32 4}
!1 = !{!"clang version 10.0.0-4ubuntu1 "}
